target datalayout = "e-m:e-p270:32:32-p271:32:32-p272:64:64-i64:64-i128:128-f80:128-n8:16:32:64-S128"
target triple = "x86_64-pc-linux-gnu"

%"class.pstd::pmr::polymorphic_allocator" = type { ptr }
%"class.pbrt::Point2" = type { %"class.pbrt::Tuple2" }
%"class.pbrt::Tuple2" = type { i32, i32 }
%"class.pbrt::HaltonSampler" = type <{ i32, i32, ptr, %"class.pbrt::Point2", %"class.pbrt::Point2", [2 x i32], i64, i32, [4 x i8] }>

@_ZN4pbrt13HaltonSampler19MaxHaltonResolutionE = linkonce_odr dso_local constant i32 128, comdat, align 4

; Function Attrs: inlinehint mustprogress nounwind uwtable
define linkonce_odr dso_local noundef i64 @_ZN4pbrt3ModIlEET_S1_S1_(i64 noundef %0, i64 noundef %1) #6 comdat {
  %3 = alloca i64, align 8
  %4 = alloca i64, align 8
  %5 = alloca i64, align 8
  store i64 %0, ptr %3, align 8, !tbaa !58
  store i64 %1, ptr %4, align 8, !tbaa !58
  call void @llvm.lifetime.start.p0(i64 8, ptr %5) #21
  %6 = load i64, ptr %3, align 8, !tbaa !58
  %7 = load i64, ptr %3, align 8, !tbaa !58
  %8 = load i64, ptr %4, align 8, !tbaa !58
  %9 = sdiv i64 %7, %8
  %10 = load i64, ptr %4, align 8, !tbaa !58
  %11 = mul nsw i64 %9, %10
  %12 = sub nsw i64 %6, %11
  store i64 %12, ptr %5, align 8, !tbaa !58
  %13 = load i64, ptr %5, align 8, !tbaa !58
  %14 = icmp slt i64 %13, 0
  br i1 %14, label %15, label %19

15:                                               ; preds = %2
  %16 = load i64, ptr %5, align 8, !tbaa !58
  %17 = load i64, ptr %4, align 8, !tbaa !58
  %18 = add nsw i64 %16, %17
  br label %21

19:                                               ; preds = %2
  %20 = load i64, ptr %5, align 8, !tbaa !58
  br label %21

21:                                               ; preds = %19, %15
  %22 = phi i64 [ %18, %15 ], [ %20, %19 ]
  call void @llvm.lifetime.end.p0(i64 8, ptr %5) #21
  ret i64 %22
}

; Function Attrs: mustprogress nounwind uwtable
define linkonce_odr dso_local void @_ZN4pbrt6Tuple2INS_6Point2EiEC2Ev(ptr noundef nonnull align 4 dereferenceable(8) %0) unnamed_addr #3 comdat align 2 {
  %2 = alloca ptr, align 8
  store ptr %0, ptr %2, align 8, !tbaa !56
  %3 = load ptr, ptr %2, align 8
  %4 = getelementptr inbounds nuw %"class.pbrt::Tuple2", ptr %3, i32 0, i32 0
  store i32 0, ptr %4, align 4, !tbaa !53
  %5 = getelementptr inbounds nuw %"class.pbrt::Tuple2", ptr %3, i32 0, i32 1
  store i32 0, ptr %5, align 4, !tbaa !52
  ret void
}

; Function Attrs: mustprogress uwtable
define linkonce_odr dso_local noundef i64 @_ZN4pbrt13HaltonSampler21multiplicativeInverseEll(i64 noundef %0, i64 noundef %1) #1 comdat align 2 {
  %3 = alloca i64, align 8
  %4 = alloca i64, align 8
  %5 = alloca i64, align 8
  %6 = alloca i64, align 8
  store i64 %0, ptr %3, align 8, !tbaa !58
  store i64 %1, ptr %4, align 8, !tbaa !58
  call void @llvm.lifetime.start.p0(i64 8, ptr %5) #21
  call void @llvm.lifetime.start.p0(i64 8, ptr %6) #21
  %7 = load i64, ptr %3, align 8, !tbaa !58
  %8 = load i64, ptr %4, align 8, !tbaa !58
  call void @_ZN4pbrt13HaltonSampler11extendedGCDEmmPlS1_(i64 noundef %7, i64 noundef %8, ptr noundef %5, ptr noundef %6)
  %9 = load i64, ptr %5, align 8, !tbaa !58
  %10 = load i64, ptr %4, align 8, !tbaa !58
  %11 = call noundef i64 @_ZN4pbrt3ModIlEET_S1_S1_(i64 noundef %9, i64 noundef %10)
  call void @llvm.lifetime.end.p0(i64 8, ptr %6) #21
  call void @llvm.lifetime.end.p0(i64 8, ptr %5) #21
  ret i64 %11
}

; Function Attrs: inlinehint mustprogress nounwind uwtable
define linkonce_odr dso_local noundef nonnull align 4 dereferenceable(4) ptr @_ZSt3minIiERKT_S2_S2_(ptr noundef nonnull align 4 dereferenceable(4) %0, ptr noundef nonnull align 4 dereferenceable(4) %1) #6 comdat {
  %3 = alloca ptr, align 8
  %4 = alloca ptr, align 8
  %5 = alloca ptr, align 8
  store ptr %0, ptr %4, align 8, !tbaa !54
  store ptr %1, ptr %5, align 8, !tbaa !54
  %6 = load ptr, ptr %5, align 8, !tbaa !54
  %7 = load i32, ptr %6, align 4, !tbaa !31
  %8 = load ptr, ptr %4, align 8, !tbaa !54
  %9 = load i32, ptr %8, align 4, !tbaa !31
  %10 = icmp slt i32 %7, %9
  br i1 %10, label %11, label %13

11:                                               ; preds = %2
  %12 = load ptr, ptr %5, align 8, !tbaa !54
  store ptr %12, ptr %3, align 8
  br label %15

13:                                               ; preds = %2
  %14 = load ptr, ptr %4, align 8, !tbaa !54
  store ptr %14, ptr %3, align 8
  br label %15

15:                                               ; preds = %13, %11
  %16 = load ptr, ptr %3, align 8
  ret ptr %16
}

; Function Attrs: mustprogress nounwind uwtable
define linkonce_odr dso_local noundef nonnull align 4 dereferenceable(4) ptr @_ZN4pbrt6Tuple2INS_6Point2EiEixEi(ptr noundef nonnull align 4 dereferenceable(8) %0, i32 noundef %1) #3 comdat align 2 {
  %3 = alloca ptr, align 8
  %4 = alloca i32, align 4
  store ptr %0, ptr %3, align 8, !tbaa !56
  store i32 %1, ptr %4, align 4, !tbaa !31
  %5 = load ptr, ptr %3, align 8
  br label %6

6:                                                ; preds = %2
  br label %7

7:                                                ; preds = %6
  %8 = load i32, ptr %4, align 4, !tbaa !31
  %9 = icmp eq i32 %8, 0
  br i1 %9, label %10, label %12

10:                                               ; preds = %7
  %11 = getelementptr inbounds nuw %"class.pbrt::Tuple2", ptr %5, i32 0, i32 0
  br label %14

12:                                               ; preds = %7
  %13 = getelementptr inbounds nuw %"class.pbrt::Tuple2", ptr %5, i32 0, i32 1
  br label %14

14:                                               ; preds = %12, %10
  %15 = phi ptr [ %11, %10 ], [ %13, %12 ]
  ret ptr %15
}

; Function Attrs: mustprogress nounwind uwtable
define linkonce_odr dso_local void @_ZN4pbrt6Point2IiEC2Ev(ptr noundef nonnull align 4 dereferenceable(8) %0) unnamed_addr #3 comdat align 2 {
  %2 = alloca ptr, align 8
  store ptr %0, ptr %2, align 8, !tbaa !50
  %3 = load ptr, ptr %2, align 8
  call void @_ZN4pbrt6Tuple2INS_6Point2EiEC2Ev(ptr noundef nonnull align 4 dereferenceable(8) %3) #21
  %4 = getelementptr inbounds nuw %"class.pbrt::Tuple2", ptr %3, i32 0, i32 1
  store i32 0, ptr %4, align 4, !tbaa !52
  %5 = getelementptr inbounds nuw %"class.pbrt::Tuple2", ptr %3, i32 0, i32 0
  store i32 0, ptr %5, align 4, !tbaa !53
  ret void
}

; Function Attrs: mustprogress uwtable
define dso_local void @_ZN4pbrt13HaltonSamplerC2EiNS_6Point2IiEENS_17RandomizeStrategyEiN4pstd3pmr21polymorphic_allocatorISt4byteEE(ptr noundef nonnull align 8 dereferenceable(52) %0, i32 noundef %1, i64 %2, i32 noundef %3, i32 noundef %4, ptr %5) unnamed_addr #1 align 2 {
  %7 = alloca %"class.pbrt::Point2", align 4
  %8 = alloca %"class.pstd::pmr::polymorphic_allocator", align 8
  %9 = alloca ptr, align 8
  %10 = alloca i32, align 4
  %11 = alloca i32, align 4
  %12 = alloca i32, align 4
  %13 = alloca %"class.pstd::pmr::polymorphic_allocator", align 8
  %14 = alloca i32, align 4
  %15 = alloca i32, align 4
  %16 = alloca i32, align 4
  %17 = alloca i32, align 4
  %18 = getelementptr inbounds nuw %"class.pbrt::Point2", ptr %7, i32 0, i32 0
  store i64 %2, ptr %18, align 4
  %19 = getelementptr inbounds nuw %"class.pstd::pmr::polymorphic_allocator", ptr %8, i32 0, i32 0
  store ptr %5, ptr %19, align 8
  store ptr %0, ptr %9, align 8, !tbaa !29
  store i32 %1, ptr %10, align 4, !tbaa !31
  store i32 %3, ptr %11, align 4, !tbaa !33
  store i32 %4, ptr %12, align 4, !tbaa !31
  %20 = load ptr, ptr %9, align 8
  %21 = getelementptr inbounds nuw %"class.pbrt::HaltonSampler", ptr %20, i32 0, i32 0
  %22 = load i32, ptr %10, align 4, !tbaa !31
  store i32 %22, ptr %21, align 8, !tbaa !35
  %23 = getelementptr inbounds nuw %"class.pbrt::HaltonSampler", ptr %20, i32 0, i32 1
  %24 = load i32, ptr %11, align 4, !tbaa !33
  store i32 %24, ptr %23, align 4, !tbaa !40
  %25 = getelementptr inbounds nuw %"class.pbrt::HaltonSampler", ptr %20, i32 0, i32 2
  store ptr null, ptr %25, align 8, !tbaa !41
  %26 = getelementptr inbounds nuw %"class.pbrt::HaltonSampler", ptr %20, i32 0, i32 3
  call void @_ZN4pbrt6Point2IiEC2Ev(ptr noundef nonnull align 4 dereferenceable(8) %26)
  %27 = getelementptr inbounds nuw %"class.pbrt::HaltonSampler", ptr %20, i32 0, i32 4
  call void @_ZN4pbrt6Point2IiEC2Ev(ptr noundef nonnull align 4 dereferenceable(8) %27)
  %28 = getelementptr inbounds nuw %"class.pbrt::HaltonSampler", ptr %20, i32 0, i32 6
  store i64 0, ptr %28, align 8, !tbaa !42
  %29 = getelementptr inbounds nuw %"class.pbrt::HaltonSampler", ptr %20, i32 0, i32 7
  store i32 0, ptr %29, align 8, !tbaa !43
  %30 = load i32, ptr %11, align 4, !tbaa !33
  %31 = icmp eq i32 %30, 1
  br i1 %31, label %32, label %38

32:                                               ; preds = %6
  %33 = load i32, ptr %12, align 4, !tbaa !31
  call void @llvm.memcpy.p0.p0.i64(ptr align 8 %13, ptr align 8 %8, i64 8, i1 false), !tbaa.struct !44
  %34 = getelementptr inbounds nuw %"class.pstd::pmr::polymorphic_allocator", ptr %13, i32 0, i32 0
  %35 = load ptr, ptr %34, align 8
  %36 = call noundef ptr @_ZN4pbrt33ComputeRadicalInversePermutationsEjN4pstd3pmr21polymorphic_allocatorISt4byteEE(i32 noundef %33, ptr %35)
  %37 = getelementptr inbounds nuw %"class.pbrt::HaltonSampler", ptr %20, i32 0, i32 2
  store ptr %36, ptr %37, align 8, !tbaa !41
  br label %38

38:                                               ; preds = %32, %6
  call void @llvm.lifetime.start.p0(i64 4, ptr %14) #21
  store i32 0, ptr %14, align 4, !tbaa !31
  br label %39

39:                                               ; preds = %69, %38
  %40 = load i32, ptr %14, align 4, !tbaa !31
  %41 = icmp slt i32 %40, 2
  br i1 %41, label %43, label %42

42:                                               ; preds = %39
  call void @llvm.lifetime.end.p0(i64 4, ptr %14) #21
  br label %72

43:                                               ; preds = %39
  call void @llvm.lifetime.start.p0(i64 4, ptr %15) #21
  %44 = load i32, ptr %14, align 4, !tbaa !31
  %45 = icmp eq i32 %44, 0
  %46 = select i1 %45, i32 2, i32 3
  store i32 %46, ptr %15, align 4, !tbaa !31
  call void @llvm.lifetime.start.p0(i64 4, ptr %16) #21
  store i32 1, ptr %16, align 4, !tbaa !31
  call void @llvm.lifetime.start.p0(i64 4, ptr %17) #21
  store i32 0, ptr %17, align 4, !tbaa !31
  br label %47

47:                                               ; preds = %54, %43
  %48 = load i32, ptr %16, align 4, !tbaa !31
  %49 = load i32, ptr %14, align 4, !tbaa !31
  %50 = call noundef nonnull align 4 dereferenceable(4) ptr @_ZN4pbrt6Tuple2INS_6Point2EiEixEi(ptr noundef nonnull align 4 dereferenceable(8) %7, i32 noundef %49)
  %51 = call noundef nonnull align 4 dereferenceable(4) ptr @_ZSt3minIiERKT_S2_S2_(ptr noundef nonnull align 4 dereferenceable(4) %50, ptr noundef nonnull align 4 dereferenceable(4) @_ZN4pbrt13HaltonSampler19MaxHaltonResolutionE)
  %52 = load i32, ptr %51, align 4, !tbaa !31
  %53 = icmp slt i32 %48, %52
  br i1 %53, label %54, label %60

54:                                               ; preds = %47
  %55 = load i32, ptr %15, align 4, !tbaa !31
  %56 = load i32, ptr %16, align 4, !tbaa !31
  %57 = mul nsw i32 %56, %55
  store i32 %57, ptr %16, align 4, !tbaa !31
  %58 = load i32, ptr %17, align 4, !tbaa !31
  %59 = add nsw i32 %58, 1
  store i32 %59, ptr %17, align 4, !tbaa !31
  br label %47, !llvm.loop !47

60:                                               ; preds = %47
  %61 = load i32, ptr %16, align 4, !tbaa !31
  %62 = getelementptr inbounds nuw %"class.pbrt::HaltonSampler", ptr %20, i32 0, i32 3
  %63 = load i32, ptr %14, align 4, !tbaa !31
  %64 = call noundef nonnull align 4 dereferenceable(4) ptr @_ZN4pbrt6Tuple2INS_6Point2EiEixEi(ptr noundef nonnull align 4 dereferenceable(8) %62, i32 noundef %63)
  store i32 %61, ptr %64, align 4, !tbaa !31
  %65 = load i32, ptr %17, align 4, !tbaa !31
  %66 = getelementptr inbounds nuw %"class.pbrt::HaltonSampler", ptr %20, i32 0, i32 4
  %67 = load i32, ptr %14, align 4, !tbaa !31
  %68 = call noundef nonnull align 4 dereferenceable(4) ptr @_ZN4pbrt6Tuple2INS_6Point2EiEixEi(ptr noundef nonnull align 4 dereferenceable(8) %66, i32 noundef %67)
  store i32 %65, ptr %68, align 4, !tbaa !31
  call void @llvm.lifetime.end.p0(i64 4, ptr %17) #21
  call void @llvm.lifetime.end.p0(i64 4, ptr %16) #21
  call void @llvm.lifetime.end.p0(i64 4, ptr %15) #21
  br label %69

69:                                               ; preds = %60
  %70 = load i32, ptr %14, align 4, !tbaa !31
  %71 = add nsw i32 %70, 1
  store i32 %71, ptr %14, align 4, !tbaa !31
  br label %39, !llvm.loop !49

72:                                               ; preds = %42
  %73 = getelementptr inbounds nuw %"class.pbrt::HaltonSampler", ptr %20, i32 0, i32 3
  %74 = call noundef nonnull align 4 dereferenceable(4) ptr @_ZN4pbrt6Tuple2INS_6Point2EiEixEi(ptr noundef nonnull align 4 dereferenceable(8) %73, i32 noundef 1)
  %75 = load i32, ptr %74, align 4, !tbaa !31
  %76 = sext i32 %75 to i64
  %77 = getelementptr inbounds nuw %"class.pbrt::HaltonSampler", ptr %20, i32 0, i32 3
  %78 = call noundef nonnull align 4 dereferenceable(4) ptr @_ZN4pbrt6Tuple2INS_6Point2EiEixEi(ptr noundef nonnull align 4 dereferenceable(8) %77, i32 noundef 0)
  %79 = load i32, ptr %78, align 4, !tbaa !31
  %80 = sext i32 %79 to i64
  %81 = call noundef i64 @_ZN4pbrt13HaltonSampler21multiplicativeInverseEll(i64 noundef %76, i64 noundef %80)
  %82 = trunc i64 %81 to i32
  %83 = getelementptr inbounds nuw %"class.pbrt::HaltonSampler", ptr %20, i32 0, i32 5
  %84 = getelementptr inbounds [2 x i32], ptr %83, i64 0, i64 0
  store i32 %82, ptr %84, align 8, !tbaa !31
  %85 = getelementptr inbounds nuw %"class.pbrt::HaltonSampler", ptr %20, i32 0, i32 3
  %86 = call noundef nonnull align 4 dereferenceable(4) ptr @_ZN4pbrt6Tuple2INS_6Point2EiEixEi(ptr noundef nonnull align 4 dereferenceable(8) %85, i32 noundef 0)
  %87 = load i32, ptr %86, align 4, !tbaa !31
  %88 = sext i32 %87 to i64
  %89 = getelementptr inbounds nuw %"class.pbrt::HaltonSampler", ptr %20, i32 0, i32 3
  %90 = call noundef nonnull align 4 dereferenceable(4) ptr @_ZN4pbrt6Tuple2INS_6Point2EiEixEi(ptr noundef nonnull align 4 dereferenceable(8) %89, i32 noundef 1)
  %91 = load i32, ptr %90, align 4, !tbaa !31
  %92 = sext i32 %91 to i64
  %93 = call noundef i64 @_ZN4pbrt13HaltonSampler21multiplicativeInverseEll(i64 noundef %88, i64 noundef %92)
  %94 = trunc i64 %93 to i32
  %95 = getelementptr inbounds nuw %"class.pbrt::HaltonSampler", ptr %20, i32 0, i32 5
  %96 = getelementptr inbounds [2 x i32], ptr %95, i64 0, i64 1
  store i32 %94, ptr %96, align 4, !tbaa !31
  ret void
}