; Function Attrs: mustprogress uwtable
define dso_local void @_ZN4pbrt13HaltonSamplerC2EiNS_6Point2IiEENS_17RandomizeStrategyEiN4pstd3pmr21polymorphic_allocatorISt4byteEE(ptr noundef nonnull align 8 captures(none) dereferenceable(52) initializes((0, 32), (40, 52)) %0, i32 noundef %1, i64 %2, i32 noundef %3, i32 noundef %4, ptr %5) unnamed_addr #0 align 2 {
  %7 = alloca i64, align 8
  %8 = alloca i64, align 8
  %9 = alloca i64, align 8
  %10 = alloca i64, align 8
  %.sroa.2.0.extract.shift = lshr i64 %2, 32
  store i32 %1, ptr %0, align 8, !tbaa !128
  %11 = getelementptr inbounds nuw i8, ptr %0, i64 4
  store i32 %3, ptr %11, align 4, !tbaa !133
  %12 = getelementptr inbounds nuw i8, ptr %0, i64 8
  %13 = getelementptr inbounds nuw i8, ptr %0, i64 16
  %14 = getelementptr inbounds nuw i8, ptr %0, i64 24
  %15 = getelementptr inbounds nuw i8, ptr %0, i64 40
  store i64 0, ptr %15, align 8, !tbaa !134
  %16 = getelementptr inbounds nuw i8, ptr %0, i64 48
  store i32 0, ptr %16, align 8, !tbaa !135
  %17 = icmp eq i32 %3, 1
  tail call void @llvm.memset.p0.i64(ptr noundef nonnull align 8 dereferenceable(24) %12, i8 0, i64 24, i1 false)
  br i1 %17, label %18, label %.preheader

.preheader:                                       ; preds = %18, %6
  br label %44

18:                                               ; preds = %6
  %19 = tail call noundef ptr @_ZN4pbrt33ComputeRadicalInversePermutationsEjN4pstd3pmr21polymorphic_allocatorISt4byteEE(i32 noundef %4, ptr %5)
  store ptr %19, ptr %12, align 8, !tbaa !136
  br label %.preheader

20:                                               ; preds = %._crit_edge
  %21 = getelementptr inbounds nuw i8, ptr %0, i64 20
  %22 = load i32, ptr %21, align 4, !tbaa !28
  %23 = sext i32 %22 to i64
  %24 = load i32, ptr %13, align 8, !tbaa !28
  %25 = sext i32 %24 to i64
  call void @llvm.lifetime.start.p0(i64 8, ptr nonnull %9) #29
  call void @llvm.lifetime.start.p0(i64 8, ptr nonnull %10) #29
  call void @_ZN4pbrt13HaltonSampler11extendedGCDEmmPlS1_(i64 noundef %23, i64 noundef %25, ptr noundef nonnull %9, ptr noundef nonnull %10)
  %26 = load i64, ptr %9, align 8, !tbaa !30
  %27 = srem i64 %26, %25
  %28 = icmp slt i64 %27, 0
  %29 = select i1 %28, i64 %25, i64 0
  %30 = add nsw i64 %29, %27
  call void @llvm.lifetime.end.p0(i64 8, ptr nonnull %10) #29
  call void @llvm.lifetime.end.p0(i64 8, ptr nonnull %9) #29
  %31 = trunc i64 %30 to i32
  %32 = getelementptr inbounds nuw i8, ptr %0, i64 32
  store i32 %31, ptr %32, align 8, !tbaa !28
  %33 = load i32, ptr %13, align 8, !tbaa !28
  %34 = sext i32 %33 to i64
  %35 = load i32, ptr %21, align 4, !tbaa !28
  %36 = sext i32 %35 to i64
  call void @llvm.lifetime.start.p0(i64 8, ptr nonnull %7) #29
  call void @llvm.lifetime.start.p0(i64 8, ptr nonnull %8) #29
  call void @_ZN4pbrt13HaltonSampler11extendedGCDEmmPlS1_(i64 noundef %34, i64 noundef %36, ptr noundef nonnull %7, ptr noundef nonnull %8)
  %37 = load i64, ptr %7, align 8, !tbaa !30
  %38 = srem i64 %37, %36
  %39 = icmp slt i64 %38, 0
  %40 = select i1 %39, i64 %36, i64 0
  %41 = add nsw i64 %40, %38
  call void @llvm.lifetime.end.p0(i64 8, ptr nonnull %8) #29
  call void @llvm.lifetime.end.p0(i64 8, ptr nonnull %7) #29
  %42 = trunc i64 %41 to i32
  %43 = getelementptr inbounds nuw i8, ptr %0, i64 36
  store i32 %42, ptr %43, align 4, !tbaa !28
  ret void

44:                                               ; preds = %.preheader, %._crit_edge
  %45 = phi i1 [ false, %._crit_edge ], [ true, %.preheader ]
  %46 = select i1 %45, i32 2, i32 3
  %.v = select i1 %45, i64 %2, i64 %.sroa.2.0.extract.shift
  %47 = trunc i64 %.v to i32
  %48 = tail call i32 @llvm.smin.i32(i32 %47, i32 128)
  %49 = icmp sgt i32 %47, 1
  br i1 %49, label %.lr.ph, label %._crit_edge

.lr.ph:                                           ; preds = %44, %.lr.ph
  %.023 = phi i32 [ %51, %.lr.ph ], [ 0, %44 ]
  %.01722 = phi i32 [ %50, %.lr.ph ], [ 1, %44 ]
  %50 = mul nuw nsw i32 %.01722, %46
  %51 = add nuw nsw i32 %.023, 1
  %52 = icmp slt i32 %50, %48
  br i1 %52, label %.lr.ph, label %._crit_edge, !llvm.loop !137

._crit_edge:                                      ; preds = %.lr.ph, %44
  %.017.lcssa = phi i32 [ 1, %44 ], [ %50, %.lr.ph ]
  %.0.lcssa = phi i32 [ 0, %44 ], [ %51, %.lr.ph ]
  %.idx.i19 = select i1 %45, i64 0, i64 4
  %53 = getelementptr inbounds nuw i8, ptr %13, i64 %.idx.i19
  store i32 %.017.lcssa, ptr %53, align 4, !tbaa !28
  %54 = getelementptr inbounds nuw i8, ptr %14, i64 %.idx.i19
  store i32 %.0.lcssa, ptr %54, align 4, !tbaa !28
  br i1 %45, label %44, label %20, !llvm.loop !139
}